target datalayout = "e-m:e-p270:32:32-p271:32:32-p272:64:64-i64:64-i128:128-f80:128-n8:16:32:64-S128"
target triple = "x86_64-pc-linux-gnu"

%struct.ggml_backend_buffer_i = type { ptr, ptr, ptr, ptr, ptr, ptr, ptr, ptr, ptr }
%struct.ggml_backend_buffer_type = type { %struct.ggml_backend_buffer_type_i, ptr, ptr }
%struct.ggml_backend_buffer_type_i = type { ptr, ptr, ptr, ptr, ptr, ptr }
%struct.ggml_backend_buffer = type { %struct.ggml_backend_buffer_i, ptr, ptr, i64, i32 }
%struct.ggml_tensor = type { i32, ptr, [4 x i64], [4 x i64], i32, [16 x i32], i32, [10 x ptr], ptr, i64, ptr, [64 x i8], ptr, [8 x i8] }

@.str = private unnamed_addr constant [123 x i8] c"generated/home/dtcxzyw/WorkSpace/Projects/compilers/llvm-opt-benchmark/bench/llama.cpp/llama.cpp/ggml/src/ggml-backend.cpp\00", align 1
@.str.1 = private unnamed_addr constant [23 x i8] c"GGML_ASSERT(%s) failed\00", align 1
@.str.2 = private unnamed_addr constant [53 x i8] c"base != NULL && \22backend buffer base cannot be NULL\22\00", align 1
@.str.28 = private unnamed_addr constant [23 x i8] c"tensor->buffer == NULL\00", align 1
@.str.32 = private unnamed_addr constant [21 x i8] c"tensor->data == NULL\00", align 1
@.str.33 = private unnamed_addr constant [25 x i8] c"tensor->view_src == NULL\00", align 1
@.str.34 = private unnamed_addr constant [45 x i8] c"addr >= ggml_backend_buffer_get_base(buffer)\00", align 1
@.str.35 = private unnamed_addr constant [153 x i8] c"(char *)addr + ggml_backend_buffer_get_alloc_size(buffer, tensor) <= (char *)ggml_backend_buffer_get_base(buffer) + ggml_backend_buffer_get_size(buffer)\00", align 1

; Function Attrs: mustprogress uwtable
define i64 @ggml_backend_buft_get_alloc_size(ptr noundef %0, ptr noundef %1) #0 {
  %3 = alloca i64, align 8
  %4 = alloca ptr, align 8
  %5 = alloca ptr, align 8
  %6 = alloca i64, align 8
  store ptr %0, ptr %4, align 8, !tbaa !3
  store ptr %1, ptr %5, align 8, !tbaa !28
  %7 = load ptr, ptr %4, align 8, !tbaa !3
  %8 = getelementptr inbounds nuw %struct.ggml_backend_buffer_type, ptr %7, i32 0, i32 0
  %9 = getelementptr inbounds nuw %struct.ggml_backend_buffer_type_i, ptr %8, i32 0, i32 4
  %10 = load ptr, ptr %9, align 8, !tbaa !30
  %11 = icmp ne ptr %10, null
  br i1 %11, label %12, label %21

12:                                               ; preds = %2
  call void @llvm.lifetime.start.p0(i64 8, ptr %6) #15
  %13 = load ptr, ptr %4, align 8, !tbaa !3
  %14 = getelementptr inbounds nuw %struct.ggml_backend_buffer_type, ptr %13, i32 0, i32 0
  %15 = getelementptr inbounds nuw %struct.ggml_backend_buffer_type_i, ptr %14, i32 0, i32 4
  %16 = load ptr, ptr %15, align 8, !tbaa !30
  %17 = load ptr, ptr %4, align 8, !tbaa !3
  %18 = load ptr, ptr %5, align 8, !tbaa !28
  %19 = call noundef i64 %16(ptr noundef %17, ptr noundef %18)
  store i64 %19, ptr %6, align 8, !tbaa !12
  %20 = load i64, ptr %6, align 8, !tbaa !12
  store i64 %20, ptr %3, align 8
  call void @llvm.lifetime.end.p0(i64 8, ptr %6) #15
  br label %24

21:                                               ; preds = %2
  %22 = load ptr, ptr %5, align 8, !tbaa !28
  %23 = call i64 @ggml_nbytes(ptr noundef %22)
  store i64 %23, ptr %3, align 8
  br label %24

24:                                               ; preds = %21, %12
  %25 = load i64, ptr %3, align 8
  ret i64 %25
}

; Function Attrs: mustprogress nounwind uwtable
define ptr @ggml_backend_buffer_get_type(ptr noundef %0) #4 {
  %2 = alloca ptr, align 8
  store ptr %0, ptr %2, align 8, !tbaa !24
  %3 = load ptr, ptr %2, align 8, !tbaa !24
  %4 = getelementptr inbounds nuw %struct.ggml_backend_buffer, ptr %3, i32 0, i32 1
  %5 = load ptr, ptr %4, align 8, !tbaa !17
  ret ptr %5
}

; Function Attrs: mustprogress uwtable
define void @ggml_backend_buffer_init_tensor(ptr noundef %0, ptr noundef %1) #0 {
  %3 = alloca ptr, align 8
  %4 = alloca ptr, align 8
  store ptr %0, ptr %3, align 8, !tbaa !24
  store ptr %1, ptr %4, align 8, !tbaa !28
  %5 = load ptr, ptr %3, align 8, !tbaa !24
  %6 = getelementptr inbounds nuw %struct.ggml_backend_buffer, ptr %5, i32 0, i32 0
  %7 = getelementptr inbounds nuw %struct.ggml_backend_buffer_i, ptr %6, i32 0, i32 2
  %8 = load ptr, ptr %7, align 8, !tbaa !35
  %9 = icmp ne ptr %8, null
  br i1 %9, label %10, label %17

10:                                               ; preds = %2
  %11 = load ptr, ptr %3, align 8, !tbaa !24
  %12 = getelementptr inbounds nuw %struct.ggml_backend_buffer, ptr %11, i32 0, i32 0
  %13 = getelementptr inbounds nuw %struct.ggml_backend_buffer_i, ptr %12, i32 0, i32 2
  %14 = load ptr, ptr %13, align 8, !tbaa !35
  %15 = load ptr, ptr %3, align 8, !tbaa !24
  %16 = load ptr, ptr %4, align 8, !tbaa !28
  call void %14(ptr noundef %15, ptr noundef %16)
  br label %17

17:                                               ; preds = %10, %2
  ret void
}

; Function Attrs: mustprogress nounwind uwtable
define i64 @ggml_backend_buffer_get_size(ptr noundef %0) #4 {
  %2 = alloca ptr, align 8
  store ptr %0, ptr %2, align 8, !tbaa !24
  %3 = load ptr, ptr %2, align 8, !tbaa !24
  %4 = getelementptr inbounds nuw %struct.ggml_backend_buffer, ptr %3, i32 0, i32 3
  %5 = load i64, ptr %4, align 8, !tbaa !22
  ret i64 %5
}

; Function Attrs: mustprogress uwtable
define i64 @ggml_backend_buffer_get_alloc_size(ptr noundef %0, ptr noundef %1) #0 {
  %3 = alloca ptr, align 8
  %4 = alloca ptr, align 8
  store ptr %0, ptr %3, align 8, !tbaa !24
  store ptr %1, ptr %4, align 8, !tbaa !28
  %5 = load ptr, ptr %3, align 8, !tbaa !24
  %6 = call ptr @ggml_backend_buffer_get_type(ptr noundef %5)
  %7 = load ptr, ptr %4, align 8, !tbaa !28
  %8 = call i64 @ggml_backend_buft_get_alloc_size(ptr noundef %6, ptr noundef %7)
  ret i64 %8
}

; Function Attrs: mustprogress uwtable
define ptr @ggml_backend_buffer_get_base(ptr noundef %0) #0 {
  %2 = alloca ptr, align 8
  %3 = alloca ptr, align 8
  %4 = alloca ptr, align 8
  store ptr %0, ptr %3, align 8, !tbaa !24
  %5 = load ptr, ptr %3, align 8, !tbaa !24
  %6 = getelementptr inbounds nuw %struct.ggml_backend_buffer, ptr %5, i32 0, i32 3
  %7 = load i64, ptr %6, align 8, !tbaa !22
  %8 = icmp eq i64 %7, 0
  br i1 %8, label %9, label %10

9:                                                ; preds = %1
  store ptr null, ptr %2, align 8
  br label %22

10:                                               ; preds = %1
  call void @llvm.lifetime.start.p0(i64 8, ptr %4) #15
  %11 = load ptr, ptr %3, align 8, !tbaa !24
  %12 = getelementptr inbounds nuw %struct.ggml_backend_buffer, ptr %11, i32 0, i32 0
  %13 = getelementptr inbounds nuw %struct.ggml_backend_buffer_i, ptr %12, i32 0, i32 1
  %14 = load ptr, ptr %13, align 8, !tbaa !34
  %15 = load ptr, ptr %3, align 8, !tbaa !24
  %16 = call noundef ptr %14(ptr noundef %15)
  store ptr %16, ptr %4, align 8, !tbaa !15
  %17 = load ptr, ptr %4, align 8, !tbaa !15
  %18 = icmp ne ptr %17, null
  br i1 %18, label %20, label %19

19:                                               ; preds = %10
  call void (ptr, i32, ptr, ...) @ggml_abort(ptr noundef @.str, i32 noundef 124, ptr noundef @.str.1, ptr noundef @.str.2) #18
  unreachable

20:                                               ; preds = %10
  %21 = load ptr, ptr %4, align 8, !tbaa !15
  store ptr %21, ptr %2, align 8
  call void @llvm.lifetime.end.p0(i64 8, ptr %4) #15
  br label %22

22:                                               ; preds = %20, %9
  %23 = load ptr, ptr %2, align 8
  ret ptr %23
}

; Function Attrs: mustprogress uwtable
define void @ggml_backend_tensor_alloc(ptr noundef %0, ptr noundef %1, ptr noundef %2) #0 {
  %4 = alloca ptr, align 8
  %5 = alloca ptr, align 8
  %6 = alloca ptr, align 8
  store ptr %0, ptr %4, align 8, !tbaa !24
  store ptr %1, ptr %5, align 8, !tbaa !28
  store ptr %2, ptr %6, align 8, !tbaa !15
  %7 = load ptr, ptr %5, align 8, !tbaa !28
  %8 = getelementptr inbounds nuw %struct.ggml_tensor, ptr %7, i32 0, i32 1
  %9 = load ptr, ptr %8, align 8, !tbaa !54
  %10 = icmp eq ptr %9, null
  br i1 %10, label %12, label %11

11:                                               ; preds = %3
  call void (ptr, i32, ptr, ...) @ggml_abort(ptr noundef @.str, i32 noundef 1656, ptr noundef @.str.1, ptr noundef @.str.28) #18
  unreachable

12:                                               ; preds = %3
  %13 = load ptr, ptr %5, align 8, !tbaa !28
  %14 = getelementptr inbounds nuw %struct.ggml_tensor, ptr %13, i32 0, i32 10
  %15 = load ptr, ptr %14, align 8, !tbaa !70
  %16 = icmp eq ptr %15, null
  br i1 %16, label %18, label %17

17:                                               ; preds = %12
  call void (ptr, i32, ptr, ...) @ggml_abort(ptr noundef @.str, i32 noundef 1657, ptr noundef @.str.1, ptr noundef @.str.32) #18
  unreachable

18:                                               ; preds = %12
  %19 = load ptr, ptr %5, align 8, !tbaa !28
  %20 = getelementptr inbounds nuw %struct.ggml_tensor, ptr %19, i32 0, i32 8
  %21 = load ptr, ptr %20, align 8, !tbaa !49
  %22 = icmp eq ptr %21, null
  br i1 %22, label %24, label %23

23:                                               ; preds = %18
  call void (ptr, i32, ptr, ...) @ggml_abort(ptr noundef @.str, i32 noundef 1658, ptr noundef @.str.1, ptr noundef @.str.33) #18
  unreachable

24:                                               ; preds = %18
  %25 = load ptr, ptr %6, align 8, !tbaa !15
  %26 = load ptr, ptr %4, align 8, !tbaa !24
  %27 = call ptr @ggml_backend_buffer_get_base(ptr noundef %26)
  %28 = icmp uge ptr %25, %27
  br i1 %28, label %30, label %29

29:                                               ; preds = %24
  call void (ptr, i32, ptr, ...) @ggml_abort(ptr noundef @.str, i32 noundef 1659, ptr noundef @.str.1, ptr noundef @.str.34) #18
  unreachable

30:                                               ; preds = %24
  %31 = load ptr, ptr %6, align 8, !tbaa !15
  %32 = load ptr, ptr %4, align 8, !tbaa !24
  %33 = load ptr, ptr %5, align 8, !tbaa !28
  %34 = call i64 @ggml_backend_buffer_get_alloc_size(ptr noundef %32, ptr noundef %33)
  %35 = getelementptr inbounds nuw i8, ptr %31, i64 %34
  %36 = load ptr, ptr %4, align 8, !tbaa !24
  %37 = call ptr @ggml_backend_buffer_get_base(ptr noundef %36)
  %38 = load ptr, ptr %4, align 8, !tbaa !24
  %39 = call i64 @ggml_backend_buffer_get_size(ptr noundef %38)
  %40 = getelementptr inbounds nuw i8, ptr %37, i64 %39
  %41 = icmp ule ptr %35, %40
  br i1 %41, label %43, label %42

42:                                               ; preds = %30
  call void (ptr, i32, ptr, ...) @ggml_abort(ptr noundef @.str, i32 noundef 1661, ptr noundef @.str.1, ptr noundef @.str.35) #18
  unreachable

43:                                               ; preds = %30
  %44 = load ptr, ptr %4, align 8, !tbaa !24
  %45 = load ptr, ptr %5, align 8, !tbaa !28
  %46 = getelementptr inbounds nuw %struct.ggml_tensor, ptr %45, i32 0, i32 1
  store ptr %44, ptr %46, align 8, !tbaa !54
  %47 = load ptr, ptr %6, align 8, !tbaa !15
  %48 = load ptr, ptr %5, align 8, !tbaa !28
  %49 = getelementptr inbounds nuw %struct.ggml_tensor, ptr %48, i32 0, i32 10
  store ptr %47, ptr %49, align 8, !tbaa !70
  %50 = load ptr, ptr %4, align 8, !tbaa !24
  %51 = load ptr, ptr %5, align 8, !tbaa !28
  call void @ggml_backend_buffer_init_tensor(ptr noundef %50, ptr noundef %51)
  ret void
}