; Function Attrs: mustprogress uwtable
define void @ggml_backend_tensor_alloc(ptr noundef %0, ptr noundef %1, ptr noundef %2) local_unnamed_addr #0 {
  %4 = getelementptr inbounds nuw i8, ptr %1, i64 8
  %5 = load ptr, ptr %4, align 8, !tbaa !47
  %6 = icmp eq ptr %5, null
  br i1 %6, label %8, label %7

7:                                                ; preds = %3
  tail call void (ptr, i32, ptr, ...) @ggml_abort(ptr noundef nonnull @.str, i32 noundef 1656, ptr noundef nonnull @.str.1, ptr noundef nonnull @.str.28) #24
  unreachable

8:                                                ; preds = %3
  %9 = getelementptr inbounds nuw i8, ptr %1, i64 248
  %10 = load ptr, ptr %9, align 8, !tbaa !60
  %11 = icmp eq ptr %10, null
  br i1 %11, label %13, label %12

12:                                               ; preds = %8
  tail call void (ptr, i32, ptr, ...) @ggml_abort(ptr noundef nonnull @.str, i32 noundef 1657, ptr noundef nonnull @.str.1, ptr noundef nonnull @.str.32) #24
  unreachable

13:                                               ; preds = %8
  %14 = getelementptr inbounds nuw i8, ptr %1, i64 232
  %15 = load ptr, ptr %14, align 8, !tbaa !41
  %16 = icmp eq ptr %15, null
  br i1 %16, label %18, label %17

17:                                               ; preds = %13
  tail call void (ptr, i32, ptr, ...) @ggml_abort(ptr noundef nonnull @.str, i32 noundef 1658, ptr noundef nonnull @.str.1, ptr noundef nonnull @.str.33) #24
  unreachable

18:                                               ; preds = %13
  %19 = getelementptr inbounds nuw i8, ptr %0, i64 88
  %20 = load i64, ptr %19, align 8, !tbaa !20
  %21 = icmp eq i64 %20, 0
  br i1 %21, label %ggml_backend_buffer_get_base.exit.thread, label %22

22:                                               ; preds = %18
  %23 = getelementptr inbounds nuw i8, ptr %0, i64 8
  %24 = load ptr, ptr %23, align 8, !tbaa !28
  %25 = tail call noundef ptr %24(ptr noundef nonnull %0)
  %.not.i = icmp eq ptr %25, null
  br i1 %.not.i, label %26, label %ggml_backend_buffer_get_base.exit

26:                                               ; preds = %22
  tail call void (ptr, i32, ptr, ...) @ggml_abort(ptr noundef nonnull @.str, i32 noundef 124, ptr noundef nonnull @.str.1, ptr noundef nonnull @.str.2) #24
  unreachable

ggml_backend_buffer_get_base.exit:                ; preds = %22
  %.not = icmp ult ptr %2, %25
  br i1 %.not, label %27, label %ggml_backend_buffer_get_base.exit.thread

27:                                               ; preds = %ggml_backend_buffer_get_base.exit
  tail call void (ptr, i32, ptr, ...) @ggml_abort(ptr noundef nonnull @.str, i32 noundef 1659, ptr noundef nonnull @.str.1, ptr noundef nonnull @.str.34) #24
  unreachable

ggml_backend_buffer_get_base.exit.thread:         ; preds = %18, %ggml_backend_buffer_get_base.exit
  %28 = getelementptr inbounds nuw i8, ptr %0, i64 72
  %29 = load ptr, ptr %28, align 8, !tbaa !10
  %30 = getelementptr inbounds nuw i8, ptr %29, i64 32
  %31 = load ptr, ptr %30, align 8, !tbaa !24
  %.not.i.i = icmp eq ptr %31, null
  br i1 %.not.i.i, label %34, label %32

32:                                               ; preds = %ggml_backend_buffer_get_base.exit.thread
  %33 = tail call noundef i64 %31(ptr noundef nonnull %29, ptr noundef nonnull %1)
  br label %ggml_backend_buffer_get_alloc_size.exit

34:                                               ; preds = %ggml_backend_buffer_get_base.exit.thread
  %35 = tail call i64 @ggml_nbytes(ptr noundef nonnull %1)
  br label %ggml_backend_buffer_get_alloc_size.exit

ggml_backend_buffer_get_alloc_size.exit:          ; preds = %32, %34
  %.0.i.i = phi i64 [ %33, %32 ], [ %35, %34 ]
  %36 = getelementptr inbounds nuw i8, ptr %2, i64 %.0.i.i
  %37 = load i64, ptr %19, align 8, !tbaa !20
  %38 = icmp eq i64 %37, 0
  br i1 %38, label %ggml_backend_buffer_get_base.exit19, label %39

39:                                               ; preds = %ggml_backend_buffer_get_alloc_size.exit
  %40 = getelementptr inbounds nuw i8, ptr %0, i64 8
  %41 = load ptr, ptr %40, align 8, !tbaa !28
  %42 = tail call noundef ptr %41(ptr noundef nonnull %0)
  %.not.i17 = icmp eq ptr %42, null
  br i1 %.not.i17, label %43, label %.ggml_backend_buffer_get_base.exit19_crit_edge

.ggml_backend_buffer_get_base.exit19_crit_edge:   ; preds = %39
  %.pre = load i64, ptr %19, align 8, !tbaa !20
  br label %ggml_backend_buffer_get_base.exit19

43:                                               ; preds = %39
  tail call void (ptr, i32, ptr, ...) @ggml_abort(ptr noundef nonnull @.str, i32 noundef 124, ptr noundef nonnull @.str.1, ptr noundef nonnull @.str.2) #24
  unreachable

ggml_backend_buffer_get_base.exit19:              ; preds = %.ggml_backend_buffer_get_base.exit19_crit_edge, %ggml_backend_buffer_get_alloc_size.exit
  %44 = phi i64 [ 0, %ggml_backend_buffer_get_alloc_size.exit ], [ %.pre, %.ggml_backend_buffer_get_base.exit19_crit_edge ]
  %.0.i18 = phi ptr [ null, %ggml_backend_buffer_get_alloc_size.exit ], [ %42, %.ggml_backend_buffer_get_base.exit19_crit_edge ]
  %45 = getelementptr inbounds nuw i8, ptr %.0.i18, i64 %44
  %.not16 = icmp ugt ptr %36, %45
  br i1 %.not16, label %46, label %47

46:                                               ; preds = %ggml_backend_buffer_get_base.exit19
  tail call void (ptr, i32, ptr, ...) @ggml_abort(ptr noundef nonnull @.str, i32 noundef 1661, ptr noundef nonnull @.str.1, ptr noundef nonnull @.str.35) #24
  unreachable

47:                                               ; preds = %ggml_backend_buffer_get_base.exit19
  store ptr %0, ptr %4, align 8, !tbaa !47
  store ptr %2, ptr %9, align 8, !tbaa !60
  %48 = getelementptr inbounds nuw i8, ptr %0, i64 16
  %49 = load ptr, ptr %48, align 8, !tbaa !29
  %.not.i20 = icmp eq ptr %49, null
  br i1 %.not.i20, label %ggml_backend_buffer_init_tensor.exit, label %50

50:                                               ; preds = %47
  tail call void %49(ptr noundef nonnull %0, ptr noundef nonnull %1)
  br label %ggml_backend_buffer_init_tensor.exit

ggml_backend_buffer_init_tensor.exit:             ; preds = %47, %50
  ret void
}